; ModuleID = '22/306.c'
source_filename = "22/306.c"
target datalayout = "e-m:e-p270:32:32-p271:32:32-p272:64:64-i64:64-f80:128-n8:16:32:64-S128"
target triple = "x86_64-pc-linux-gnu"

@.str = private unnamed_addr constant [3 x i8] c"No\00", align 1
@.str.1 = private unnamed_addr constant [3 x i8] c"%d\00", align 1

; Function Attrs: noinline nounwind uwtable
define dso_local i32 @cmp(i8* %0, i8* %1) #0 {
  %3 = alloca i8*, align 8
  %4 = alloca i8*, align 8
  store i8* %0, i8** %3, align 8
  store i8* %1, i8** %4, align 8
  %5 = load i8*, i8** %3, align 8
  %6 = bitcast i8* %5 to i32*
  %7 = load i32, i32* %6, align 4
  %8 = sub nsw i32 0, %7
  %9 = load i8*, i8** %4, align 8
  %10 = bitcast i8* %9 to i32*
  %11 = load i32, i32* %10, align 4
  %12 = add nsw i32 %8, %11
  ret i32 %12
}

; Function Attrs: noinline nounwind uwtable
define dso_local void @main() #0 {
  %1 = alloca i32, align 4
  %2 = alloca i32, align 4
  %3 = alloca i32, align 4
  %4 = alloca i32, align 4
  %5 = alloca [300 x i32], align 16
  %6 = alloca i32, align 4
  %7 = alloca i8, align 1
  store i32 0, i32* %1, align 4
  %8 = bitcast [300 x i32]* %5 to i8*
  call void @llvm.memset.p0i8.i64(i8* align 16 %8, i8 0, i64 1200, i1 false)
  br label %9

9:                                                ; preds = %38, %0
  %10 = call i32 @getchar()
  %11 = trunc i32 %10 to i8
  store i8 %11, i8* %7, align 1
  %12 = sext i8 %11 to i32
  %13 = icmp ne i32 %12, -1
  br i1 %13, label %14, label %39

14:                                               ; preds = %9
  %15 = load i8, i8* %7, align 1
  %16 = sext i8 %15 to i32
  %17 = icmp sle i32 %16, 57
  br i1 %17, label %18, label %35

18:                                               ; preds = %14
  %19 = load i8, i8* %7, align 1
  %20 = sext i8 %19 to i32
  %21 = icmp sge i32 %20, 48
  br i1 %21, label %22, label %35

22:                                               ; preds = %18
  %23 = load i32, i32* %1, align 4
  %24 = sext i32 %23 to i64
  %25 = getelementptr inbounds [300 x i32], [300 x i32]* %5, i64 0, i64 %24
  %26 = load i32, i32* %25, align 4
  %27 = mul nsw i32 10, %26
  %28 = load i8, i8* %7, align 1
  %29 = sext i8 %28 to i32
  %30 = add nsw i32 %27, %29
  %31 = sub nsw i32 %30, 48
  %32 = load i32, i32* %1, align 4
  %33 = sext i32 %32 to i64
  %34 = getelementptr inbounds [300 x i32], [300 x i32]* %5, i64 0, i64 %33
  store i32 %31, i32* %34, align 4
  br label %38

35:                                               ; preds = %18, %14
  %36 = load i32, i32* %1, align 4
  %37 = add nsw i32 %36, 1
  store i32 %37, i32* %1, align 4
  br label %38

38:                                               ; preds = %35, %22
  br label %9

39:                                               ; preds = %9
  %40 = getelementptr inbounds [300 x i32], [300 x i32]* %5, i64 0, i64 0
  %41 = bitcast i32* %40 to i8*
  %42 = load i32, i32* %1, align 4
  %43 = add nsw i32 %42, 1
  %44 = sext i32 %43 to i64
  call void @qsort(i8* %41, i64 %44, i64 4, i32 (i8*, i8*)* @cmp)
  %45 = getelementptr inbounds [300 x i32], [300 x i32]* %5, i64 0, i64 0
  %46 = load i32, i32* %45, align 16
  store i32 %46, i32* %6, align 4
  store i32 0, i32* %2, align 4
  br label %47

47:                                               ; preds = %75, %39
  %48 = load i32, i32* %2, align 4
  %49 = load i32, i32* %1, align 4
  %50 = add nsw i32 %49, 3
  %51 = icmp slt i32 %48, %50
  br i1 %51, label %52, label %78

52:                                               ; preds = %47
  %53 = load i32, i32* %2, align 4
  %54 = sext i32 %53 to i64
  %55 = getelementptr inbounds [300 x i32], [300 x i32]* %5, i64 0, i64 %54
  %56 = load i32, i32* %55, align 4
  %57 = icmp eq i32 %56, 0
  br i1 %57, label %58, label %60

58:                                               ; preds = %52
  %59 = call i32 (i8*, ...) @printf(i8* getelementptr inbounds ([3 x i8], [3 x i8]* @.str, i64 0, i64 0))
  br label %78

60:                                               ; preds = %52
  %61 = load i32, i32* %2, align 4
  %62 = sext i32 %61 to i64
  %63 = getelementptr inbounds [300 x i32], [300 x i32]* %5, i64 0, i64 %62
  %64 = load i32, i32* %63, align 4
  %65 = load i32, i32* %6, align 4
  %66 = icmp ne i32 %64, %65
  br i1 %66, label %67, label %73

67:                                               ; preds = %60
  %68 = load i32, i32* %2, align 4
  %69 = sext i32 %68 to i64
  %70 = getelementptr inbounds [300 x i32], [300 x i32]* %5, i64 0, i64 %69
  %71 = load i32, i32* %70, align 4
  %72 = call i32 (i8*, ...) @printf(i8* getelementptr inbounds ([3 x i8], [3 x i8]* @.str.1, i64 0, i64 0), i32 %71)
  br label %78

73:                                               ; preds = %60
  br label %74

74:                                               ; preds = %73
  br label %75

75:                                               ; preds = %74
  %76 = load i32, i32* %2, align 4
  %77 = add nsw i32 %76, 1
  store i32 %77, i32* %2, align 4
  br label %47

78:                                               ; preds = %67, %58, %47
  ret void
}

; Function Attrs: argmemonly nounwind willreturn
declare void @llvm.memset.p0i8.i64(i8* nocapture writeonly, i8, i64, i1 immarg) #1

declare dso_local i32 @getchar() #2

declare dso_local void @qsort(i8*, i64, i64, i32 (i8*, i8*)*) #2

declare dso_local i32 @printf(i8*, ...) #2


!llvm.module.flags = !{!0}
!llvm.ident = !{!1}

!0 = !{i32 1, !"wchar_size", i32 4}
!1 = !{!"clang version 10.0.0-4ubuntu1 "}
