; ModuleID = 'source-C-CXX/21/306.c'
source_filename = "source-C-CXX/21/306.c"
target datalayout = "e-m:e-p270:32:32-p271:32:32-p272:64:64-i64:64-f80:128-n8:16:32:64-S128"
target triple = "x86_64-pc-linux-gnu"

%struct._IO_FILE = type { i32, i8*, i8*, i8*, i8*, i8*, i8*, i8*, i8*, i8*, i8*, i8*, %struct._IO_marker*, %struct._IO_FILE*, i32, i32, i64, i16, i8, [1 x i8], i8*, i64, %struct._IO_codecvt*, %struct._IO_wide_data*, %struct._IO_FILE*, i8*, i64, i32, [20 x i8] }
%struct._IO_marker = type opaque
%struct._IO_codecvt = type opaque
%struct._IO_wide_data = type opaque

@.str = private unnamed_addr constant [3 x i8] c"No\00", align 1
@.str.1 = private unnamed_addr constant [3 x i8] c"%d\00", align 1
@stdin = external local_unnamed_addr global %struct._IO_FILE*, align 8

; Function Attrs: mustprogress nofree norecurse nosync nounwind readonly sspstrong uwtable willreturn
define dso_local i32 @cmp(i8* nocapture readonly %0, i8* nocapture readonly %1) #0 {
  %3 = bitcast i8* %0 to i32*
  %4 = load i32, i32* %3, align 4, !tbaa !5
  %5 = bitcast i8* %1 to i32*
  %6 = load i32, i32* %5, align 4, !tbaa !5
  %7 = sub i32 %6, %4
  ret i32 %7
}

; Function Attrs: nofree nounwind sspstrong uwtable
define dso_local void @main() local_unnamed_addr #1 {
  %1 = alloca [300 x i32], align 16
  %2 = bitcast [300 x i32]* %1 to i8*
  call void @llvm.lifetime.start.p0i8(i64 1200, i8* nonnull %2) #7
  call void @llvm.memset.p0i8.i64(i8* noundef nonnull align 16 dereferenceable(1200) %2, i8 0, i64 1200, i1 false)
  %3 = load %struct._IO_FILE*, %struct._IO_FILE** @stdin, align 8, !tbaa !9
  %4 = tail call i32 @getc(%struct._IO_FILE* %3) #7
  %5 = shl i32 %4, 24
  %6 = icmp eq i32 %5, -16777216
  br i1 %6, label %28, label %7

7:                                                ; preds = %0, %22
  %8 = phi i32 [ %26, %22 ], [ %5, %0 ]
  %9 = phi i32 [ %23, %22 ], [ 0, %0 ]
  %10 = add i32 %8, -788529153
  %11 = icmp ult i32 %10, 184549375
  br i1 %11, label %12, label %20

12:                                               ; preds = %7
  %13 = lshr exact i32 %8, 24
  %14 = sext i32 %9 to i64
  %15 = getelementptr inbounds [300 x i32], [300 x i32]* %1, i64 0, i64 %14
  %16 = load i32, i32* %15, align 4, !tbaa !5
  %17 = mul nsw i32 %16, 10
  %18 = add nsw i32 %13, -48
  %19 = add i32 %18, %17
  store i32 %19, i32* %15, align 4, !tbaa !5
  br label %22

20:                                               ; preds = %7
  %21 = add nsw i32 %9, 1
  br label %22

22:                                               ; preds = %20, %12
  %23 = phi i32 [ %9, %12 ], [ %21, %20 ]
  %24 = load %struct._IO_FILE*, %struct._IO_FILE** @stdin, align 8, !tbaa !9
  %25 = tail call i32 @getc(%struct._IO_FILE* %24) #7
  %26 = shl i32 %25, 24
  %27 = icmp eq i32 %26, -16777216
  br i1 %27, label %28, label %7, !llvm.loop !11

28:                                               ; preds = %22, %0
  %29 = phi i32 [ 0, %0 ], [ %23, %22 ]
  %30 = getelementptr inbounds [300 x i32], [300 x i32]* %1, i64 0, i64 0
  %31 = add nsw i32 %29, 1
  %32 = sext i32 %31 to i64
  call void @qsort(i8* nonnull %2, i64 %32, i64 4, i32 (i8*, i8*)* nonnull @cmp) #7
  %33 = load i32, i32* %30, align 16, !tbaa !5
  %34 = icmp sgt i32 %29, -3
  br i1 %34, label %35, label %56

35:                                               ; preds = %28
  %36 = add i32 %29, 2
  %37 = call i32 @llvm.smax.i32(i32 %36, i32 0)
  %38 = add nuw i32 %37, 1
  %39 = zext i32 %38 to i64
  %40 = icmp eq i32 %33, 0
  br i1 %40, label %48, label %50

41:                                               ; preds = %50
  %42 = add nuw nsw i64 %51, 1
  %43 = icmp eq i64 %42, %39
  br i1 %43, label %56, label %44, !llvm.loop !13

44:                                               ; preds = %41
  %45 = getelementptr inbounds [300 x i32], [300 x i32]* %1, i64 0, i64 %42
  %46 = load i32, i32* %45, align 4, !tbaa !5
  %47 = icmp eq i32 %46, 0
  br i1 %47, label %48, label %50

48:                                               ; preds = %44, %35
  %49 = call i32 (i8*, ...) @printf(i8* nonnull dereferenceable(1) getelementptr inbounds ([3 x i8], [3 x i8]* @.str, i64 0, i64 0))
  br label %56

50:                                               ; preds = %35, %44
  %51 = phi i64 [ %42, %44 ], [ 0, %35 ]
  %52 = phi i32 [ %46, %44 ], [ %33, %35 ]
  %53 = icmp eq i32 %52, %33
  br i1 %53, label %41, label %54

54:                                               ; preds = %50
  %55 = call i32 (i8*, ...) @printf(i8* nonnull dereferenceable(1) getelementptr inbounds ([3 x i8], [3 x i8]* @.str.1, i64 0, i64 0), i32 %52)
  br label %56

56:                                               ; preds = %41, %28, %54, %48
  call void @llvm.lifetime.end.p0i8(i64 1200, i8* nonnull %2) #7
  ret void
}

; Function Attrs: argmemonly mustprogress nofree nosync nounwind willreturn
declare void @llvm.lifetime.start.p0i8(i64 immarg, i8* nocapture) #2

; Function Attrs: argmemonly mustprogress nofree nounwind willreturn writeonly
declare void @llvm.memset.p0i8.i64(i8* nocapture writeonly, i8, i64, i1 immarg) #3

; Function Attrs: nofree
declare void @qsort(i8* noundef, i64 noundef, i64 noundef, i32 (i8*, i8*)* nocapture noundef) local_unnamed_addr #4

; Function Attrs: nofree nounwind
declare noundef i32 @printf(i8* nocapture noundef readonly, ...) local_unnamed_addr #5

; Function Attrs: argmemonly mustprogress nofree nosync nounwind willreturn
declare void @llvm.lifetime.end.p0i8(i64 immarg, i8* nocapture) #2

; Function Attrs: nofree nounwind
declare noundef i32 @getc(%struct._IO_FILE* nocapture noundef) local_unnamed_addr #5

; Function Attrs: nofree nosync nounwind readnone speculatable willreturn
declare i32 @llvm.smax.i32(i32, i32) #6


!llvm.module.flags = !{!0, !1, !2, !3}
!llvm.ident = !{!4}

!0 = !{i32 1, !"wchar_size", i32 4}
!1 = !{i32 7, !"PIC Level", i32 2}
!2 = !{i32 7, !"PIE Level", i32 2}
!3 = !{i32 7, !"uwtable", i32 1}
!4 = !{!"clang version 13.0.0"}
!5 = !{!6, !6, i64 0}
!6 = !{!"int", !7, i64 0}
!7 = !{!"omnipotent char", !8, i64 0}
!8 = !{!"Simple C/C++ TBAA"}
!9 = !{!10, !10, i64 0}
!10 = !{!"any pointer", !7, i64 0}
!11 = distinct !{!11, !12}
!12 = !{!"llvm.loop.mustprogress"}
!13 = distinct !{!13, !12}
